; Function Attrs: mustprogress uwtable
define dso_local void @_ZNK5Block18create_new_tmp_varB5cxx11E11eSimpleType(ptr dead_on_unwind noalias writable sret(%"class.std::__cxx11::basic_string") align 8 %0, ptr noundef nonnull align 8 dereferenceable(192) %1, i32 noundef %2) local_unnamed_addr #3 align 2 personality ptr @__gxx_personality_v0 {
  tail call void @_Z6gensymB5cxx11PKc(ptr dead_on_unwind writable sret(%"class.std::__cxx11::basic_string") align 8 %0, ptr noundef nonnull @.str)
  %4 = getelementptr inbounds i8, ptr %1, i64 104
  %5 = invoke noundef nonnull align 4 dereferenceable(4) ptr @_ZNSt3mapINSt7__cxx1112basic_stringIcSt11char_traitsIcESaIcEEE11eSimpleTypeSt4lessIS5_ESaISt4pairIKS5_S6_EEEixERSA_(ptr noundef nonnull align 8 dereferenceable(48) %4, ptr noundef nonnull align 8 dereferenceable(32) %0)
          to label %6 unwind label %7

6:                                                ; preds = %3
  store i32 %2, ptr %5, align 4
  ret void

7:                                                ; preds = %3
  %8 = landingpad { ptr, i32 }
          cleanup
  tail call void @_ZNSt7__cxx1112basic_stringIcSt11char_traitsIcESaIcEED1Ev(ptr noundef nonnull align 8 dereferenceable(32) %0) #20
  resume { ptr, i32 } %8
}